target datalayout = "e-m:e-p270:32:32-p271:32:32-p272:64:64-i64:64-i128:128-f80:128-n8:16:32:64-S128"
target triple = "x86_64-pc-linux-gnu"

; Function Attrs: mustprogress nounwind uwtable
define linkonce_odr hidden noundef ptr @_ZN10ciMetadata18as_obj_array_klassEv(ptr noundef nonnull align 8 dereferenceable(24) %0) #1 comdat align 2 {
  %2 = alloca ptr, align 8
  store ptr %0, ptr %2, align 8
  %3 = load ptr, ptr %2, align 8
  ret ptr %3
}

; Function Attrs: mustprogress nounwind uwtable
define hidden noundef ptr @_ZN15ciObjArrayKlass4makeEP7ciKlassi(ptr noundef %0, i32 noundef %1) #1 align 2 {
  %3 = alloca ptr, align 8
  %4 = alloca i32, align 4
  %5 = alloca ptr, align 8
  %6 = alloca i32, align 4
  store ptr %0, ptr %3, align 8
  store i32 %1, ptr %4, align 4
  %7 = load ptr, ptr %3, align 8
  store ptr %7, ptr %5, align 8
  store i32 0, ptr %6, align 4
  br label %8

8:                                                ; preds = %15, %2
  %9 = load i32, ptr %6, align 4
  %10 = load i32, ptr %4, align 4
  %11 = icmp slt i32 %9, %10
  br i1 %11, label %12, label %18

12:                                               ; preds = %8
  %13 = load ptr, ptr %5, align 8
  %14 = call noundef ptr @_ZN15ciObjArrayKlass4makeEP7ciKlass(ptr noundef %13)
  store ptr %14, ptr %5, align 8
  br label %15

15:                                               ; preds = %12
  %16 = load i32, ptr %6, align 4
  %17 = add nsw i32 %16, 1
  store i32 %17, ptr %6, align 4
  br label %8, !llvm.loop !8

18:                                               ; preds = %8
  %19 = load ptr, ptr %5, align 8
  %20 = call noundef ptr @_ZN10ciMetadata18as_obj_array_klassEv(ptr noundef nonnull align 8 dereferenceable(24) %19)
  ret ptr %20
}