; Function Attrs: mustprogress nounwind uwtable
define hidden noundef ptr @_ZN15ciObjArrayKlass4makeEP7ciKlassi(ptr noundef %0, i32 noundef %1) local_unnamed_addr #0 align 2 {
  %3 = icmp sgt i32 %1, 0
  br i1 %3, label %.lr.ph, label %._crit_edge

.lr.ph:                                           ; preds = %2, %.lr.ph
  %.07 = phi i32 [ %5, %.lr.ph ], [ 0, %2 ]
  %.056 = phi ptr [ %4, %.lr.ph ], [ %0, %2 ]
  %4 = tail call noundef ptr @_ZN15ciObjArrayKlass4makeEP7ciKlass(ptr noundef %.056)
  %5 = add nuw nsw i32 %.07, 1
  %exitcond.not = icmp eq i32 %5, %1
  br i1 %exitcond.not, label %._crit_edge, label %.lr.ph, !llvm.loop !8

._crit_edge:                                      ; preds = %.lr.ph, %2
  %.05.lcssa = phi ptr [ %0, %2 ], [ %4, %.lr.ph ]
  ret ptr %.05.lcssa
}